target datalayout = "e-m:e-p270:32:32-p271:32:32-p272:64:64-i64:64-i128:128-f80:128-n8:16:32:64-S128"
target triple = "x86_64-pc-linux-gnu"

%struct._zval_struct = type { %union._zend_value, %union.anon, %union.anon.2 }
%union._zend_value = type { i64 }
%union.anon = type { i32 }
%union.anon.2 = type { i32 }
%struct._zend_array = type { %struct._zend_refcounted_h, %union.anon.4, i32, %union.anon.6, i32, i32, i32, i32, i64, ptr }
%struct._zend_refcounted_h = type { i32, %union.anon.3 }
%union.anon.3 = type { i32 }
%union.anon.4 = type { i32 }
%union.anon.6 = type { ptr }
%struct._zend_llist = type { ptr, ptr, i64, i64, ptr, i8, ptr }
%struct._php_core_globals = type { i64, i8, i8, i8, i8, i8, i8, i8, i8, ptr, ptr, i64, i64, i64, ptr, ptr, ptr, ptr, ptr, i8, ptr, ptr, ptr, ptr, i64, ptr, ptr, ptr, ptr, ptr, ptr, ptr, %struct._arg_separators, ptr, %struct._zend_array, i16, i8, i8, %struct._zend_llist, [6 x %struct._zval_struct], i8, i8, i8, i8, i8, ptr, ptr, i64, [8 x i8], i8, i8, i8, i8, i8, i8, i32, i32, ptr, ptr, ptr, ptr, i64, i64, ptr, i64, ptr, ptr, i8, i8, i8, i8, i8, i8, i64, ptr, i64, i64 }
%struct._arg_separators = type { ptr, ptr }
%struct._sapi_module_struct = type { ptr, ptr, ptr, ptr, ptr, ptr, ptr, ptr, ptr, ptr, ptr, ptr, ptr, ptr, ptr, ptr, ptr, ptr, ptr, ptr, ptr, ptr, ptr, ptr, i32, i32, ptr, ptr, ptr, ptr, ptr, ptr, i32, ptr, ptr, ptr }

@core_globals = external global %struct._php_core_globals, align 8
@sapi_module = external global %struct._sapi_module_struct, align 8

; Function Attrs: nounwind uwtable
define internal void @cgi_php_load_env_var(ptr noundef %0, i32 noundef %1, ptr noundef %2, i32 noundef %3, ptr noundef %4) #0 {
  %6 = alloca ptr, align 8
  %7 = alloca i32, align 4
  %8 = alloca ptr, align 8
  %9 = alloca i32, align 4
  %10 = alloca ptr, align 8
  %11 = alloca ptr, align 8
  %12 = alloca i32, align 4
  %13 = alloca i64, align 8
  store ptr %0, ptr %6, align 8, !tbaa !63
  store i32 %1, ptr %7, align 4, !tbaa !73
  store ptr %2, ptr %8, align 8, !tbaa !63
  store i32 %3, ptr %9, align 4, !tbaa !73
  store ptr %4, ptr %10, align 8, !tbaa !66
  call void @llvm.lifetime.start.p0(i64 8, ptr %11) #20
  %14 = load ptr, ptr %10, align 8, !tbaa !66
  store ptr %14, ptr %11, align 8, !tbaa !9
  call void @llvm.lifetime.start.p0(i64 4, ptr %12) #20
  %15 = load ptr, ptr %11, align 8, !tbaa !9
  %16 = getelementptr inbounds nuw %struct._zval_struct, ptr %15, i32 0, i32 0
  %17 = load ptr, ptr %16, align 8, !tbaa !11
  %18 = load ptr, ptr getelementptr inbounds ([6 x %struct._zval_struct], ptr getelementptr inbounds nuw (%struct._php_core_globals, ptr @core_globals, i32 0, i32 39), i64 0, i64 4), align 8, !tbaa !11
  %19 = icmp eq ptr %17, %18
  %20 = select i1 %19, i32 4, i32 5
  store i32 %20, ptr %12, align 4, !tbaa !73
  call void @llvm.lifetime.start.p0(i64 8, ptr %13) #20
  %21 = load ptr, ptr getelementptr inbounds nuw (%struct._sapi_module_struct, ptr @sapi_module, i32 0, i32 30), align 8, !tbaa !177
  %22 = load i32, ptr %12, align 4, !tbaa !73
  %23 = load ptr, ptr %6, align 8, !tbaa !63
  %24 = load ptr, ptr %8, align 8, !tbaa !63
  %25 = call i64 @strlen(ptr noundef %24) #21
  %26 = call i32 %21(i32 noundef %22, ptr noundef %23, ptr noundef %8, i64 noundef %25, ptr noundef %13)
  %27 = icmp ne i32 %26, 0
  br i1 %27, label %28, label %33

28:                                               ; preds = %5
  %29 = load ptr, ptr %6, align 8, !tbaa !63
  %30 = load ptr, ptr %8, align 8, !tbaa !63
  %31 = load i64, ptr %13, align 8, !tbaa !64
  %32 = load ptr, ptr %11, align 8, !tbaa !9
  call void @php_register_variable_safe(ptr noundef %29, ptr noundef %30, i64 noundef %31, ptr noundef %32)
  br label %33

33:                                               ; preds = %28, %5
  call void @llvm.lifetime.end.p0(i64 8, ptr %13) #20
  call void @llvm.lifetime.end.p0(i64 4, ptr %12) #20
  call void @llvm.lifetime.end.p0(i64 8, ptr %11) #20
  ret void
}