; Function Attrs: nounwind uwtable
define internal void @cgi_php_load_env_var(ptr noundef %0, i32 %1, ptr noundef %2, i32 %3, ptr noundef %4) #0 {
  %6 = alloca ptr, align 8
  %7 = alloca i64, align 8
  store ptr %2, ptr %6, align 8, !tbaa !60
  %8 = load ptr, ptr %4, align 8, !tbaa !4
  %9 = load ptr, ptr getelementptr inbounds nuw (i8, ptr @core_globals, i64 408), align 8, !tbaa !4
  %10 = icmp eq ptr %8, %9
  %11 = select i1 %10, i32 4, i32 5
  call void @llvm.lifetime.start.p0(i64 8, ptr nonnull %7) #29
  %12 = load ptr, ptr getelementptr inbounds nuw (i8, ptr @sapi_module, i64 232), align 8, !tbaa !161
  %13 = tail call i64 @strlen(ptr noundef nonnull dereferenceable(1) %2) #30
  %14 = call i32 %12(i32 noundef %11, ptr noundef %0, ptr noundef nonnull %6, i64 noundef %13, ptr noundef nonnull %7) #29
  %.not = icmp eq i32 %14, 0
  br i1 %.not, label %18, label %15

15:                                               ; preds = %5
  %16 = load ptr, ptr %6, align 8, !tbaa !60
  %17 = load i64, ptr %7, align 8, !tbaa !160
  call void @php_register_variable_safe(ptr noundef %0, ptr noundef %16, i64 noundef %17, ptr noundef nonnull %4) #29
  br label %18

18:                                               ; preds = %15, %5
  call void @llvm.lifetime.end.p0(i64 8, ptr nonnull %7) #29
  ret void
}